#include <math.h>
#include <stdio.h>
#include <stdlib.h>
#include <string.h>


void main()
{
	int n,m,*p,*q,i;
	int a[100];
	
	scanf("%d %d",&n,&m);
	for(i=0;i<n;i++)
	{
		scanf("%d",&a[i]);
	}
	p=a;
	q=a+n-1;
    for(i=0;i<n-m;i++)
	{ 
		*(q+1)=*p;	q++;p++;
	}
    for(i=0;i<n;i++)
		*(a+i)=*(p+i);
	for(i=0;i<n-1;i++)
		printf("%d ",a[i]);
	printf("%d",a[n-1]);
}