target datalayout = "e-m:e-p270:32:32-p271:32:32-p272:64:64-i64:64-f80:128-n8:16:32:64-S128"
target triple = "x86_64-pc-linux-gnu"

@.str = private unnamed_addr constant [6 x i8] c"%d %d\00", align 1
@.str.1 = private unnamed_addr constant [3 x i8] c"%d\00", align 1
@.str.2 = private unnamed_addr constant [4 x i8] c"%d \00", align 1

; Function Attrs: noinline nounwind uwtable
define dso_local void @main() #0 {
  %1 = alloca i32, align 4
  %2 = alloca i32, align 4
  %3 = alloca i32*, align 8
  %4 = alloca i32*, align 8
  %5 = alloca i32, align 4
  %6 = alloca [100 x i32], align 16
  %7 = call i32 (i8*, ...) @__isoc99_scanf(i8* getelementptr inbounds ([6 x i8], [6 x i8]* @.str, i64 0, i64 0), i32* %1, i32* %2)
  store i32 0, i32* %5, align 4
  br label %8

8:                                                ; preds = %17, %0
  %9 = load i32, i32* %5, align 4
  %10 = load i32, i32* %1, align 4
  %11 = icmp slt i32 %9, %10
  br i1 %11, label %12, label %20

12:                                               ; preds = %8
  %13 = load i32, i32* %5, align 4
  %14 = sext i32 %13 to i64
  %15 = getelementptr inbounds [100 x i32], [100 x i32]* %6, i64 0, i64 %14
  %16 = call i32 (i8*, ...) @__isoc99_scanf(i8* getelementptr inbounds ([3 x i8], [3 x i8]* @.str.1, i64 0, i64 0), i32* %15)
  br label %17

17:                                               ; preds = %12
  %18 = load i32, i32* %5, align 4
  %19 = add nsw i32 %18, 1
  store i32 %19, i32* %5, align 4
  br label %8

20:                                               ; preds = %8
  %21 = getelementptr inbounds [100 x i32], [100 x i32]* %6, i64 0, i64 0
  store i32* %21, i32** %3, align 8
  %22 = getelementptr inbounds [100 x i32], [100 x i32]* %6, i64 0, i64 0
  %23 = load i32, i32* %1, align 4
  %24 = sext i32 %23 to i64
  %25 = getelementptr inbounds i32, i32* %22, i64 %24
  %26 = getelementptr inbounds i32, i32* %25, i64 -1
  store i32* %26, i32** %4, align 8
  store i32 0, i32* %5, align 4
  br label %27

27:                                               ; preds = %42, %20
  %28 = load i32, i32* %5, align 4
  %29 = load i32, i32* %1, align 4
  %30 = load i32, i32* %2, align 4
  %31 = sub nsw i32 %29, %30
  %32 = icmp slt i32 %28, %31
  br i1 %32, label %33, label %45

33:                                               ; preds = %27
  %34 = load i32*, i32** %3, align 8
  %35 = load i32, i32* %34, align 4
  %36 = load i32*, i32** %4, align 8
  %37 = getelementptr inbounds i32, i32* %36, i64 1
  store i32 %35, i32* %37, align 4
  %38 = load i32*, i32** %4, align 8
  %39 = getelementptr inbounds i32, i32* %38, i32 1
  store i32* %39, i32** %4, align 8
  %40 = load i32*, i32** %3, align 8
  %41 = getelementptr inbounds i32, i32* %40, i32 1
  store i32* %41, i32** %3, align 8
  br label %42

42:                                               ; preds = %33
  %43 = load i32, i32* %5, align 4
  %44 = add nsw i32 %43, 1
  store i32 %44, i32* %5, align 4
  br label %27

45:                                               ; preds = %27
  store i32 0, i32* %5, align 4
  br label %46

46:                                               ; preds = %60, %45
  %47 = load i32, i32* %5, align 4
  %48 = load i32, i32* %1, align 4
  %49 = icmp slt i32 %47, %48
  br i1 %49, label %50, label %63

50:                                               ; preds = %46
  %51 = load i32*, i32** %3, align 8
  %52 = load i32, i32* %5, align 4
  %53 = sext i32 %52 to i64
  %54 = getelementptr inbounds i32, i32* %51, i64 %53
  %55 = load i32, i32* %54, align 4
  %56 = getelementptr inbounds [100 x i32], [100 x i32]* %6, i64 0, i64 0
  %57 = load i32, i32* %5, align 4
  %58 = sext i32 %57 to i64
  %59 = getelementptr inbounds i32, i32* %56, i64 %58
  store i32 %55, i32* %59, align 4
  br label %60

60:                                               ; preds = %50
  %61 = load i32, i32* %5, align 4
  %62 = add nsw i32 %61, 1
  store i32 %62, i32* %5, align 4
  br label %46

63:                                               ; preds = %46
  store i32 0, i32* %5, align 4
  br label %64

64:                                               ; preds = %75, %63
  %65 = load i32, i32* %5, align 4
  %66 = load i32, i32* %1, align 4
  %67 = sub nsw i32 %66, 1
  %68 = icmp slt i32 %65, %67
  br i1 %68, label %69, label %78

69:                                               ; preds = %64
  %70 = load i32, i32* %5, align 4
  %71 = sext i32 %70 to i64
  %72 = getelementptr inbounds [100 x i32], [100 x i32]* %6, i64 0, i64 %71
  %73 = load i32, i32* %72, align 4
  %74 = call i32 (i8*, ...) @printf(i8* getelementptr inbounds ([4 x i8], [4 x i8]* @.str.2, i64 0, i64 0), i32 %73)
  br label %75

75:                                               ; preds = %69
  %76 = load i32, i32* %5, align 4
  %77 = add nsw i32 %76, 1
  store i32 %77, i32* %5, align 4
  br label %64

78:                                               ; preds = %64
  %79 = load i32, i32* %1, align 4
  %80 = sub nsw i32 %79, 1
  %81 = sext i32 %80 to i64
  %82 = getelementptr inbounds [100 x i32], [100 x i32]* %6, i64 0, i64 %81
  %83 = load i32, i32* %82, align 4
  %84 = call i32 (i8*, ...) @printf(i8* getelementptr inbounds ([3 x i8], [3 x i8]* @.str.1, i64 0, i64 0), i32 %83)
  ret void
}